target datalayout = "e-m:e-p270:32:32-p271:32:32-p272:64:64-i64:64-i128:128-f80:128-n8:16:32:64-S128"
target triple = "x86_64-pc-linux-gnu"

%struct.Abc_Ntk_t_ = type { i32, i32, ptr, ptr, ptr, ptr, ptr, ptr, ptr, ptr, ptr, ptr, ptr, [11 x i32], i32, i32, i32, i32, ptr, i32, ptr, ptr, i32, i32, i32, double, i32, %struct.Vec_Int_t_, ptr, ptr, ptr, ptr, ptr, float, i32, ptr, ptr, ptr, ptr, ptr, ptr, ptr, ptr, ptr, ptr, ptr, ptr, ptr, ptr, ptr, ptr, ptr, ptr, ptr, ptr, ptr }
%struct.Vec_Int_t_ = type { i32, i32, ptr }
%struct.Vec_Ptr_t_ = type { i32, i32, ptr }
%struct.Abc_Obj_t_ = type { ptr, ptr, i32, i32, %struct.Vec_Int_t_, %struct.Vec_Int_t_, %union.anon, %union.anon.0 }
%union.anon = type { ptr }
%union.anon.0 = type { ptr }

; Function Attrs: nounwind uwtable
define internal void @Vec_IntWriteEntry(ptr noundef %0, i32 noundef %1, i32 noundef %2) #0 {
  %4 = alloca ptr, align 8
  %5 = alloca i32, align 4
  %6 = alloca i32, align 4
  store ptr %0, ptr %4, align 8
  store i32 %1, ptr %5, align 4
  store i32 %2, ptr %6, align 4
  %7 = load i32, ptr %6, align 4
  %8 = load ptr, ptr %4, align 8
  %9 = getelementptr inbounds %struct.Vec_Int_t_, ptr %8, i32 0, i32 2
  %10 = load ptr, ptr %9, align 8
  %11 = load i32, ptr %5, align 4
  %12 = sext i32 %11 to i64
  %13 = getelementptr inbounds i32, ptr %10, i64 %12
  store i32 %7, ptr %13, align 4
  ret void
}

; Function Attrs: nounwind uwtable
define internal i32 @Vec_IntEntry(ptr noundef %0, i32 noundef %1) #0 {
  %3 = alloca ptr, align 8
  %4 = alloca i32, align 4
  store ptr %0, ptr %3, align 8
  store i32 %1, ptr %4, align 4
  %5 = load ptr, ptr %3, align 8
  %6 = getelementptr inbounds %struct.Vec_Int_t_, ptr %5, i32 0, i32 2
  %7 = load ptr, ptr %6, align 8
  %8 = load i32, ptr %4, align 4
  %9 = sext i32 %8 to i64
  %10 = getelementptr inbounds i32, ptr %7, i64 %9
  %11 = load i32, ptr %10, align 4
  ret i32 %11
}

; Function Attrs: nounwind uwtable
define internal void @Vec_IntSetEntry(ptr noundef %0, i32 noundef %1, i32 noundef %2) #0 {
  %4 = alloca ptr, align 8
  %5 = alloca i32, align 4
  %6 = alloca i32, align 4
  store ptr %0, ptr %4, align 8
  store i32 %1, ptr %5, align 4
  store i32 %2, ptr %6, align 4
  %7 = load ptr, ptr %4, align 8
  %8 = load i32, ptr %5, align 4
  %9 = add nsw i32 %8, 1
  call void @Vec_IntFillExtra(ptr noundef %7, i32 noundef %9, i32 noundef 0)
  %10 = load ptr, ptr %4, align 8
  %11 = load i32, ptr %5, align 4
  %12 = load i32, ptr %6, align 4
  call void @Vec_IntWriteEntry(ptr noundef %10, i32 noundef %11, i32 noundef %12)
  ret void
}

; Function Attrs: nounwind uwtable
define internal i32 @Vec_IntGetEntry(ptr noundef %0, i32 noundef %1) #0 {
  %3 = alloca ptr, align 8
  %4 = alloca i32, align 4
  store ptr %0, ptr %3, align 8
  store i32 %1, ptr %4, align 4
  %5 = load ptr, ptr %3, align 8
  %6 = load i32, ptr %4, align 4
  %7 = add nsw i32 %6, 1
  call void @Vec_IntFillExtra(ptr noundef %5, i32 noundef %7, i32 noundef 0)
  %8 = load ptr, ptr %3, align 8
  %9 = load i32, ptr %4, align 4
  %10 = call i32 @Vec_IntEntry(ptr noundef %8, i32 noundef %9)
  ret i32 %10
}

; Function Attrs: nounwind uwtable
define internal i32 @Abc_ObjId(ptr noundef %0) #0 {
  %2 = alloca ptr, align 8
  store ptr %0, ptr %2, align 8
  %3 = load ptr, ptr %2, align 8
  %4 = getelementptr inbounds %struct.Abc_Obj_t_, ptr %3, i32 0, i32 2
  %5 = load i32, ptr %4, align 8
  ret i32 %5
}

; Function Attrs: nounwind uwtable
define internal void @Abc_NodeSetTravId(ptr noundef %0, i32 noundef %1) #0 {
  %3 = alloca ptr, align 8
  %4 = alloca i32, align 4
  store ptr %0, ptr %3, align 8
  store i32 %1, ptr %4, align 4
  %5 = load ptr, ptr %3, align 8
  %6 = call ptr @Abc_ObjNtk(ptr noundef %5)
  %7 = getelementptr inbounds %struct.Abc_Ntk_t_, ptr %6, i32 0, i32 27
  %8 = load ptr, ptr %3, align 8
  %9 = call i32 @Abc_ObjId(ptr noundef %8)
  %10 = load i32, ptr %4, align 4
  call void @Vec_IntSetEntry(ptr noundef %7, i32 noundef %9, i32 noundef %10)
  ret void
}

; Function Attrs: nounwind uwtable
define internal i32 @Abc_ObjFanoutNum(ptr noundef %0) #0 {
  %2 = alloca ptr, align 8
  store ptr %0, ptr %2, align 8
  %3 = load ptr, ptr %2, align 8
  %4 = getelementptr inbounds %struct.Abc_Obj_t_, ptr %3, i32 0, i32 5
  %5 = getelementptr inbounds %struct.Vec_Int_t_, ptr %4, i32 0, i32 1
  %6 = load i32, ptr %5, align 4
  ret i32 %6
}

; Function Attrs: nounwind uwtable
define internal ptr @Abc_ObjNtk(ptr noundef %0) #0 {
  %2 = alloca ptr, align 8
  store ptr %0, ptr %2, align 8
  %3 = load ptr, ptr %2, align 8
  %4 = getelementptr inbounds %struct.Abc_Obj_t_, ptr %3, i32 0, i32 0
  %5 = load ptr, ptr %4, align 8
  ret ptr %5
}

; Function Attrs: nounwind uwtable
define internal i32 @Abc_NodeTravId(ptr noundef %0) #0 {
  %2 = alloca ptr, align 8
  store ptr %0, ptr %2, align 8
  %3 = load ptr, ptr %2, align 8
  %4 = call ptr @Abc_ObjNtk(ptr noundef %3)
  %5 = getelementptr inbounds %struct.Abc_Ntk_t_, ptr %4, i32 0, i32 27
  %6 = load ptr, ptr %2, align 8
  %7 = call i32 @Abc_ObjId(ptr noundef %6)
  %8 = call i32 @Vec_IntGetEntry(ptr noundef %5, i32 noundef %7)
  ret i32 %8
}

; Function Attrs: nounwind uwtable
define internal ptr @Abc_ObjFanin(ptr noundef %0, i32 noundef %1) #0 {
  %3 = alloca ptr, align 8
  %4 = alloca i32, align 4
  store ptr %0, ptr %3, align 8
  store i32 %1, ptr %4, align 4
  %5 = load ptr, ptr %3, align 8
  %6 = getelementptr inbounds %struct.Abc_Obj_t_, ptr %5, i32 0, i32 0
  %7 = load ptr, ptr %6, align 8
  %8 = getelementptr inbounds %struct.Abc_Ntk_t_, ptr %7, i32 0, i32 5
  %9 = load ptr, ptr %8, align 8
  %10 = getelementptr inbounds %struct.Vec_Ptr_t_, ptr %9, i32 0, i32 2
  %11 = load ptr, ptr %10, align 8
  %12 = load ptr, ptr %3, align 8
  %13 = getelementptr inbounds %struct.Abc_Obj_t_, ptr %12, i32 0, i32 4
  %14 = getelementptr inbounds %struct.Vec_Int_t_, ptr %13, i32 0, i32 2
  %15 = load ptr, ptr %14, align 8
  %16 = load i32, ptr %4, align 4
  %17 = sext i32 %16 to i64
  %18 = getelementptr inbounds i32, ptr %15, i64 %17
  %19 = load i32, ptr %18, align 4
  %20 = sext i32 %19 to i64
  %21 = getelementptr inbounds ptr, ptr %11, i64 %20
  %22 = load ptr, ptr %21, align 8
  ret ptr %22
}

; Function Attrs: nounwind uwtable
define internal i32 @Abc_ObjFaninNum(ptr noundef %0) #0 {
  %2 = alloca ptr, align 8
  store ptr %0, ptr %2, align 8
  %3 = load ptr, ptr %2, align 8
  %4 = getelementptr inbounds %struct.Abc_Obj_t_, ptr %3, i32 0, i32 4
  %5 = getelementptr inbounds %struct.Vec_Int_t_, ptr %4, i32 0, i32 1
  %6 = load i32, ptr %5, align 4
  ret i32 %6
}

; Function Attrs: nounwind uwtable
define internal void @Abc_NodeSetTravIdCurrent(ptr noundef %0) #0 {
  %2 = alloca ptr, align 8
  store ptr %0, ptr %2, align 8
  %3 = load ptr, ptr %2, align 8
  %4 = load ptr, ptr %2, align 8
  %5 = call ptr @Abc_ObjNtk(ptr noundef %4)
  %6 = getelementptr inbounds %struct.Abc_Ntk_t_, ptr %5, i32 0, i32 26
  %7 = load i32, ptr %6, align 8
  call void @Abc_NodeSetTravId(ptr noundef %3, i32 noundef %7)
  ret void
}

; Function Attrs: nounwind uwtable
define internal i32 @Abc_ObjCrossCutInc(ptr noundef %0) #0 {
  %2 = alloca ptr, align 8
  %3 = alloca i32, align 4
  store ptr %0, ptr %2, align 8
  %4 = load ptr, ptr %2, align 8
  %5 = getelementptr inbounds %struct.Abc_Obj_t_, ptr %4, i32 0, i32 7
  %6 = load ptr, ptr %5, align 8
  %7 = ptrtoint ptr %6 to i64
  %8 = trunc i64 %7 to i32
  store i32 %8, ptr %3, align 4
  %9 = load i32, ptr %3, align 4
  %10 = add nsw i32 %9, 1
  %11 = sext i32 %10 to i64
  %12 = inttoptr i64 %11 to ptr
  %13 = load ptr, ptr %2, align 8
  %14 = getelementptr inbounds %struct.Abc_Obj_t_, ptr %13, i32 0, i32 7
  store ptr %12, ptr %14, align 8
  %15 = load ptr, ptr %2, align 8
  %16 = getelementptr inbounds %struct.Abc_Obj_t_, ptr %15, i32 0, i32 7
  %17 = load ptr, ptr %16, align 8
  %18 = ptrtoint ptr %17 to i64
  %19 = trunc i64 %18 to i32
  %20 = load ptr, ptr %2, align 8
  %21 = call i32 @Abc_ObjFanoutNum(ptr noundef %20)
  %22 = icmp eq i32 %19, %21
  %23 = zext i1 %22 to i32
  ret i32 %23
}

; Function Attrs: nounwind uwtable
define internal i32 @Abc_NodeIsTravIdCurrent(ptr noundef %0) #0 {
  %2 = alloca ptr, align 8
  store ptr %0, ptr %2, align 8
  %3 = load ptr, ptr %2, align 8
  %4 = call i32 @Abc_NodeTravId(ptr noundef %3)
  %5 = load ptr, ptr %2, align 8
  %6 = call ptr @Abc_ObjNtk(ptr noundef %5)
  %7 = getelementptr inbounds %struct.Abc_Ntk_t_, ptr %6, i32 0, i32 26
  %8 = load i32, ptr %7, align 8
  %9 = icmp eq i32 %4, %8
  %10 = zext i1 %9 to i32
  ret i32 %10
}

; Function Attrs: nounwind uwtable
define internal i32 @Abc_ObjIsCi(ptr noundef %0) #0 {
  %2 = alloca ptr, align 8
  store ptr %0, ptr %2, align 8
  %3 = load ptr, ptr %2, align 8
  %4 = getelementptr inbounds %struct.Abc_Obj_t_, ptr %3, i32 0, i32 3
  %5 = load i32, ptr %4, align 4
  %6 = and i32 %5, 15
  %7 = icmp eq i32 %6, 2
  br i1 %7, label %14, label %8

8:                                                ; preds = %1
  %9 = load ptr, ptr %2, align 8
  %10 = getelementptr inbounds %struct.Abc_Obj_t_, ptr %9, i32 0, i32 3
  %11 = load i32, ptr %10, align 4
  %12 = and i32 %11, 15
  %13 = icmp eq i32 %12, 5
  br label %14

14:                                               ; preds = %8, %1
  %15 = phi i1 [ true, %1 ], [ %13, %8 ]
  %16 = zext i1 %15 to i32
  ret i32 %16
}

; Function Attrs: nounwind uwtable
define i32 @Abc_NtkCrossCut_rec(ptr noundef %0, ptr noundef %1, ptr noundef %2) #0 {
  %4 = alloca i32, align 4
  %5 = alloca ptr, align 8
  %6 = alloca ptr, align 8
  %7 = alloca ptr, align 8
  %8 = alloca ptr, align 8
  %9 = alloca i32, align 4
  %10 = alloca i32, align 4
  %11 = alloca i32, align 4
  store ptr %0, ptr %5, align 8
  store ptr %1, ptr %6, align 8
  store ptr %2, ptr %7, align 8
  store i32 0, ptr %10, align 4
  store i32 0, ptr %11, align 4
  %12 = load ptr, ptr %5, align 8
  %13 = call i32 @Abc_ObjIsCi(ptr noundef %12)
  %14 = icmp ne i32 %13, 0
  br i1 %14, label %15, label %16

15:                                               ; preds = %3
  store i32 0, ptr %4, align 4
  br label %105

16:                                               ; preds = %3
  %17 = load ptr, ptr %5, align 8
  %18 = call i32 @Abc_NodeIsTravIdCurrent(ptr noundef %17)
  %19 = icmp ne i32 %18, 0
  br i1 %19, label %20, label %23

20:                                               ; preds = %16
  %21 = load ptr, ptr %5, align 8
  %22 = call i32 @Abc_ObjCrossCutInc(ptr noundef %21)
  store i32 %22, ptr %4, align 4
  br label %105

23:                                               ; preds = %16
  %24 = load ptr, ptr %5, align 8
  call void @Abc_NodeSetTravIdCurrent(ptr noundef %24)
  %25 = load ptr, ptr %5, align 8
  %26 = call i32 @Abc_ObjIsCi(ptr noundef %25)
  %27 = icmp ne i32 %26, 0
  br i1 %27, label %85, label %28

28:                                               ; preds = %23
  %29 = load i32, ptr %11, align 4
  %30 = icmp ne i32 %29, 0
  br i1 %30, label %31, label %61

31:                                               ; preds = %28
  store i32 0, ptr %9, align 4
  br label %32

32:                                               ; preds = %57, %31
  %33 = load i32, ptr %9, align 4
  %34 = load ptr, ptr %5, align 8
  %35 = call i32 @Abc_ObjFaninNum(ptr noundef %34)
  %36 = icmp slt i32 %33, %35
  br i1 %36, label %37, label %41

37:                                               ; preds = %32
  %38 = load ptr, ptr %5, align 8
  %39 = load i32, ptr %9, align 4
  %40 = call ptr @Abc_ObjFanin(ptr noundef %38, i32 noundef %39)
  store ptr %40, ptr %8, align 8
  br label %41

41:                                               ; preds = %37, %32
  %42 = phi i1 [ false, %32 ], [ true, %37 ]
  br i1 %42, label %43, label %60

43:                                               ; preds = %41
  %44 = load ptr, ptr %5, align 8
  %45 = load ptr, ptr %5, align 8
  %46 = call i32 @Abc_ObjFaninNum(ptr noundef %45)
  %47 = sub nsw i32 %46, 1
  %48 = load i32, ptr %9, align 4
  %49 = sub nsw i32 %47, %48
  %50 = call ptr @Abc_ObjFanin(ptr noundef %44, i32 noundef %49)
  store ptr %50, ptr %8, align 8
  %51 = load ptr, ptr %8, align 8
  %52 = load ptr, ptr %6, align 8
  %53 = load ptr, ptr %7, align 8
  %54 = call i32 @Abc_NtkCrossCut_rec(ptr noundef %51, ptr noundef %52, ptr noundef %53)
  %55 = load i32, ptr %10, align 4
  %56 = add nsw i32 %55, %54
  store i32 %56, ptr %10, align 4
  br label %57

57:                                               ; preds = %43
  %58 = load i32, ptr %9, align 4
  %59 = add nsw i32 %58, 1
  store i32 %59, ptr %9, align 4
  br label %32, !llvm.loop !88

60:                                               ; preds = %41
  br label %84

61:                                               ; preds = %28
  store i32 0, ptr %9, align 4
  br label %62

62:                                               ; preds = %80, %61
  %63 = load i32, ptr %9, align 4
  %64 = load ptr, ptr %5, align 8
  %65 = call i32 @Abc_ObjFaninNum(ptr noundef %64)
  %66 = icmp slt i32 %63, %65
  br i1 %66, label %67, label %71

67:                                               ; preds = %62
  %68 = load ptr, ptr %5, align 8
  %69 = load i32, ptr %9, align 4
  %70 = call ptr @Abc_ObjFanin(ptr noundef %68, i32 noundef %69)
  store ptr %70, ptr %8, align 8
  br label %71

71:                                               ; preds = %67, %62
  %72 = phi i1 [ false, %62 ], [ true, %67 ]
  br i1 %72, label %73, label %83

73:                                               ; preds = %71
  %74 = load ptr, ptr %8, align 8
  %75 = load ptr, ptr %6, align 8
  %76 = load ptr, ptr %7, align 8
  %77 = call i32 @Abc_NtkCrossCut_rec(ptr noundef %74, ptr noundef %75, ptr noundef %76)
  %78 = load i32, ptr %10, align 4
  %79 = add nsw i32 %78, %77
  store i32 %79, ptr %10, align 4
  br label %80

80:                                               ; preds = %73
  %81 = load i32, ptr %9, align 4
  %82 = add nsw i32 %81, 1
  store i32 %82, ptr %9, align 4
  br label %62, !llvm.loop !89

83:                                               ; preds = %71
  br label %84

84:                                               ; preds = %83, %60
  br label %85

85:                                               ; preds = %84, %23
  %86 = load ptr, ptr %6, align 8
  %87 = load i32, ptr %86, align 4
  %88 = add nsw i32 %87, 1
  store i32 %88, ptr %86, align 4
  %89 = load ptr, ptr %7, align 8
  %90 = load i32, ptr %89, align 4
  %91 = load ptr, ptr %6, align 8
  %92 = load i32, ptr %91, align 4
  %93 = icmp slt i32 %90, %92
  br i1 %93, label %94, label %98

94:                                               ; preds = %85
  %95 = load ptr, ptr %6, align 8
  %96 = load i32, ptr %95, align 4
  %97 = load ptr, ptr %7, align 8
  store i32 %96, ptr %97, align 4
  br label %98

98:                                               ; preds = %94, %85
  %99 = load i32, ptr %10, align 4
  %100 = load ptr, ptr %6, align 8
  %101 = load i32, ptr %100, align 4
  %102 = sub nsw i32 %101, %99
  store i32 %102, ptr %100, align 4
  %103 = load ptr, ptr %5, align 8
  %104 = call i32 @Abc_ObjCrossCutInc(ptr noundef %103)
  store i32 %104, ptr %4, align 4
  br label %105

105:                                              ; preds = %98, %20, %15
  %106 = load i32, ptr %4, align 4
  ret i32 %106
}