; Function Attrs: nounwind uwtable
define range(i32 0, 2) i32 @Abc_NtkCrossCut_rec(ptr noundef captures(none) %0, ptr noundef captures(none) %1, ptr noundef captures(none) %2) local_unnamed_addr #0 {
  %4 = getelementptr i8, ptr %0, i64 20
  %.val47 = load i32, ptr %4, align 4
  %5 = and i32 %.val47, 15
  switch i32 %5, label %6 [
    i32 5, label %55
    i32 2, label %55
  ]

6:                                                ; preds = %3
  %.val2.i = load ptr, ptr %0, align 8
  %7 = getelementptr i8, ptr %0, i64 16
  %.val3.i = load i32, ptr %7, align 8
  %8 = getelementptr inbounds nuw i8, ptr %.val2.i, i64 224
  %9 = add nsw i32 %.val3.i, 1
  tail call fastcc void @Vec_IntFillExtra(ptr noundef nonnull %8, i32 noundef %9)
  %10 = getelementptr i8, ptr %.val2.i, i64 232
  %.val.i.i.i = load ptr, ptr %10, align 8
  %11 = sext i32 %.val3.i to i64
  %12 = getelementptr inbounds i32, ptr %.val.i.i.i, i64 %11
  %13 = load i32, ptr %12, align 4
  %.val.i = load ptr, ptr %0, align 8
  %14 = getelementptr inbounds nuw i8, ptr %.val.i, i64 216
  %15 = load i32, ptr %14, align 8
  %.not = icmp eq i32 %13, %15
  br i1 %.not, label %.sink.split, label %16

16:                                               ; preds = %6
  %.val49 = load i32, ptr %7, align 8
  %17 = getelementptr inbounds nuw i8, ptr %.val.i, i64 224
  %18 = add nsw i32 %.val49, 1
  tail call fastcc void @Vec_IntFillExtra(ptr noundef nonnull %17, i32 noundef %18)
  %19 = getelementptr i8, ptr %.val.i, i64 232
  %.val.i.i.i51 = load ptr, ptr %19, align 8
  %20 = sext i32 %.val49 to i64
  %21 = getelementptr inbounds i32, ptr %.val.i.i.i51, i64 %20
  store i32 %15, ptr %21, align 4
  %.val46 = load i32, ptr %4, align 4
  %22 = and i32 %.val46, 15
  switch i32 %22, label %.preheader [
    i32 5, label %.critedge
    i32 2, label %.critedge
  ]

.preheader:                                       ; preds = %16
  %23 = getelementptr i8, ptr %0, i64 28
  %.val58 = load i32, ptr %23, align 4
  %24 = icmp sgt i32 %.val58, 0
  br i1 %24, label %.lr.ph, label %.critedge

.lr.ph:                                           ; preds = %.preheader
  %25 = getelementptr i8, ptr %0, i64 32
  br label %26

26:                                               ; preds = %.lr.ph, %26
  %indvars.iv = phi i64 [ 0, %.lr.ph ], [ %indvars.iv.next, %26 ]
  %.260 = phi i32 [ 0, %.lr.ph ], [ %35, %26 ]
  %.val44 = load ptr, ptr %0, align 8
  %.val45 = load ptr, ptr %25, align 8
  %27 = getelementptr i8, ptr %.val44, i64 32
  %.val44.val = load ptr, ptr %27, align 8
  %28 = getelementptr i8, ptr %.val44.val, i64 8
  %.val44.val.val = load ptr, ptr %28, align 8
  %29 = getelementptr inbounds nuw i32, ptr %.val45, i64 %indvars.iv
  %30 = load i32, ptr %29, align 4
  %31 = sext i32 %30 to i64
  %32 = getelementptr inbounds ptr, ptr %.val44.val.val, i64 %31
  %33 = load ptr, ptr %32, align 8
  %34 = tail call i32 @Abc_NtkCrossCut_rec(ptr noundef %33, ptr noundef %1, ptr noundef %2)
  %35 = add nuw nsw i32 %34, %.260
  %indvars.iv.next = add nuw nsw i64 %indvars.iv, 1
  %.val = load i32, ptr %23, align 4
  %36 = sext i32 %.val to i64
  %37 = icmp slt i64 %indvars.iv.next, %36
  br i1 %37, label %26, label %.critedge, !llvm.loop !86

.critedge:                                        ; preds = %26, %.preheader, %16, %16
  %.037 = phi i32 [ 0, %16 ], [ 0, %16 ], [ 0, %.preheader ], [ %35, %26 ]
  %38 = load i32, ptr %1, align 4
  %39 = add nsw i32 %38, 1
  store i32 %39, ptr %1, align 4
  %40 = load i32, ptr %2, align 4
  %.not43 = icmp sgt i32 %40, %38
  br i1 %.not43, label %42, label %41

41:                                               ; preds = %.critedge
  store i32 %39, ptr %2, align 4
  %.pre = load i32, ptr %1, align 4
  br label %42

42:                                               ; preds = %41, %.critedge
  %43 = phi i32 [ %.pre, %41 ], [ %39, %.critedge ]
  %44 = sub nsw i32 %43, %.037
  store i32 %44, ptr %1, align 4
  br label %.sink.split

.sink.split:                                      ; preds = %6, %42
  %45 = getelementptr inbounds nuw i8, ptr %0, i64 64
  %46 = load ptr, ptr %45, align 8
  %47 = ptrtoint ptr %46 to i64
  %48 = trunc i64 %47 to i32
  %49 = add nsw i32 %48, 1
  %50 = sext i32 %49 to i64
  %51 = inttoptr i64 %50 to ptr
  store ptr %51, ptr %45, align 8
  %52 = getelementptr i8, ptr %0, i64 44
  %.val.i53 = load i32, ptr %52, align 4
  %53 = icmp eq i32 %49, %.val.i53
  %54 = zext i1 %53 to i32
  br label %55

55:                                               ; preds = %.sink.split, %3, %3
  %.0.shrunk = phi i32 [ 0, %3 ], [ 0, %3 ], [ %54, %.sink.split ]
  ret i32 %.0.shrunk
}